target datalayout = "e-m:e-p270:32:32-p271:32:32-p272:64:64-i64:64-i128:128-f80:128-n8:16:32:64-S128"
target triple = "x86_64-unknown-linux-gnu"

%"class.Imath_3_2::Vec2" = type { i32, i32 }
%"class.Imf_3_2::ImageLevel" = type { ptr, ptr, i32, i32, %"class.Imath_3_2::Box" }
%"class.Imath_3_2::Box" = type { %"class.Imath_3_2::Vec2", %"class.Imath_3_2::Vec2" }

; Function Attrs: mustprogress nounwind uwtable
define void @_ZN7Imf_3_210ImageLevel11shiftPixelsEii(ptr noundef nonnull align 8 dereferenceable(40) %this, i32 noundef %dx, i32 noundef %dy) unnamed_addr #4 align 2 {
entry:
  %this.addr = alloca ptr, align 8
  %dx.addr = alloca i32, align 4
  %dy.addr = alloca i32, align 4
  store ptr %this, ptr %this.addr, align 8
  store i32 %dx, ptr %dx.addr, align 4
  store i32 %dy, ptr %dy.addr, align 4
  %this1 = load ptr, ptr %this.addr, align 8
  %0 = load i32, ptr %dx.addr, align 4
  %_dataWindow = getelementptr inbounds %"class.Imf_3_2::ImageLevel", ptr %this1, i32 0, i32 4
  %min = getelementptr inbounds %"class.Imath_3_2::Box", ptr %_dataWindow, i32 0, i32 0
  %x = getelementptr inbounds %"class.Imath_3_2::Vec2", ptr %min, i32 0, i32 0
  %1 = load i32, ptr %x, align 8
  %add = add nsw i32 %1, %0
  store i32 %add, ptr %x, align 8
  %2 = load i32, ptr %dy.addr, align 4
  %_dataWindow2 = getelementptr inbounds %"class.Imf_3_2::ImageLevel", ptr %this1, i32 0, i32 4
  %min3 = getelementptr inbounds %"class.Imath_3_2::Box", ptr %_dataWindow2, i32 0, i32 0
  %y = getelementptr inbounds %"class.Imath_3_2::Vec2", ptr %min3, i32 0, i32 1
  %3 = load i32, ptr %y, align 4
  %add4 = add nsw i32 %3, %2
  store i32 %add4, ptr %y, align 4
  %4 = load i32, ptr %dx.addr, align 4
  %_dataWindow5 = getelementptr inbounds %"class.Imf_3_2::ImageLevel", ptr %this1, i32 0, i32 4
  %max = getelementptr inbounds %"class.Imath_3_2::Box", ptr %_dataWindow5, i32 0, i32 1
  %x6 = getelementptr inbounds %"class.Imath_3_2::Vec2", ptr %max, i32 0, i32 0
  %5 = load i32, ptr %x6, align 8
  %add7 = add nsw i32 %5, %4
  store i32 %add7, ptr %x6, align 8
  %6 = load i32, ptr %dy.addr, align 4
  %_dataWindow8 = getelementptr inbounds %"class.Imf_3_2::ImageLevel", ptr %this1, i32 0, i32 4
  %max9 = getelementptr inbounds %"class.Imath_3_2::Box", ptr %_dataWindow8, i32 0, i32 1
  %y10 = getelementptr inbounds %"class.Imath_3_2::Vec2", ptr %max9, i32 0, i32 1
  %7 = load i32, ptr %y10, align 4
  %add11 = add nsw i32 %7, %6
  store i32 %add11, ptr %y10, align 4
  ret void
}