; Function Attrs: mustprogress nofree norecurse nosync nounwind willreturn memory(argmem: readwrite) uwtable
define void @_ZN7Imf_3_210ImageLevel11shiftPixelsEii(ptr nocapture noundef nonnull align 8 dereferenceable(40) %this, i32 noundef %dx, i32 noundef %dy) unnamed_addr #8 align 2 {
entry:
  %_dataWindow = getelementptr inbounds i8, ptr %this, i64 24
  %0 = load <4 x i32>, ptr %_dataWindow, align 8
  %1 = insertelement <4 x i32> poison, i32 %dx, i64 0
  %2 = insertelement <4 x i32> %1, i32 %dy, i64 1
  %3 = shufflevector <4 x i32> %2, <4 x i32> poison, <4 x i32> <i32 0, i32 1, i32 0, i32 1>
  %4 = add nsw <4 x i32> %0, %3
  store <4 x i32> %4, ptr %_dataWindow, align 8
  ret void
}